target datalayout = "e-m:e-p270:32:32-p271:32:32-p272:64:64-i64:64-i128:128-f80:128-n8:16:32:64-S128"
target triple = "x86_64-pc-linux-gnu"

%struct.multi_pack_index = type { ptr, ptr, i64, ptr, ptr, i64, i32, i8, i8, i8, i32, i32, i32, i32, i32, ptr, i64, ptr, i64, ptr, ptr, ptr, ptr, i64, ptr, i64, ptr, i32, i32, ptr, ptr, ptr, [0 x i8] }

@.str.43 = private unnamed_addr constant [7 x i8] c"midx.c\00", align 1
@.str.64 = private unnamed_addr constant [46 x i8] c"NULL multi-pack-index for object position: %u\00", align 1
@.str.65 = private unnamed_addr constant [53 x i8] c"invalid MIDX object position, MIDX is likely corrupt\00", align 1

; Function Attrs: inlinehint nounwind uwtable
define internal i32 @get_be32(ptr noundef %0) #2 {
  %2 = alloca ptr, align 8
  %3 = alloca ptr, align 8
  store ptr %0, ptr %2, align 8, !tbaa !43
  call void @llvm.lifetime.start.p0(i64 8, ptr %3) #13
  %4 = load ptr, ptr %2, align 8, !tbaa !43
  store ptr %4, ptr %3, align 8, !tbaa !9
  %5 = load ptr, ptr %3, align 8, !tbaa !9
  %6 = getelementptr inbounds i8, ptr %5, i64 0
  %7 = load i8, ptr %6, align 1, !tbaa !49
  %8 = zext i8 %7 to i32
  %9 = shl i32 %8, 24
  %10 = load ptr, ptr %3, align 8, !tbaa !9
  %11 = getelementptr inbounds i8, ptr %10, i64 1
  %12 = load i8, ptr %11, align 1, !tbaa !49
  %13 = zext i8 %12 to i32
  %14 = shl i32 %13, 16
  %15 = or i32 %9, %14
  %16 = load ptr, ptr %3, align 8, !tbaa !9
  %17 = getelementptr inbounds i8, ptr %16, i64 2
  %18 = load i8, ptr %17, align 1, !tbaa !49
  %19 = zext i8 %18 to i32
  %20 = shl i32 %19, 8
  %21 = or i32 %15, %20
  %22 = load ptr, ptr %3, align 8, !tbaa !9
  %23 = getelementptr inbounds i8, ptr %22, i64 3
  %24 = load i8, ptr %23, align 1, !tbaa !49
  %25 = zext i8 %24 to i32
  %26 = shl i32 %25, 0
  %27 = or i32 %21, %26
  call void @llvm.lifetime.end.p0(i64 8, ptr %3) #13
  ret i32 %27
}

; Function Attrs: nounwind uwtable
define internal i32 @midx_for_object(ptr noundef %0, i32 noundef %1) #0 {
  %3 = alloca ptr, align 8
  %4 = alloca i32, align 4
  %5 = alloca ptr, align 8
  store ptr %0, ptr %3, align 8, !tbaa !61
  store i32 %1, ptr %4, align 4, !tbaa !40
  call void @llvm.lifetime.start.p0(i64 8, ptr %5) #13
  %6 = load ptr, ptr %3, align 8, !tbaa !61
  %7 = load ptr, ptr %6, align 8, !tbaa !4
  store ptr %7, ptr %5, align 8, !tbaa !4
  br label %8

8:                                                ; preds = %19, %2
  %9 = load ptr, ptr %5, align 8, !tbaa !4
  %10 = icmp ne ptr %9, null
  br i1 %10, label %11, label %17

11:                                               ; preds = %8
  %12 = load i32, ptr %4, align 4, !tbaa !40
  %13 = load ptr, ptr %5, align 8, !tbaa !4
  %14 = getelementptr inbounds nuw %struct.multi_pack_index, ptr %13, i32 0, i32 27
  %15 = load i32, ptr %14, align 8, !tbaa !40
  %16 = icmp ult i32 %12, %15
  br label %17

17:                                               ; preds = %11, %8
  %18 = phi i1 [ false, %8 ], [ %16, %11 ]
  br i1 %18, label %19, label %23

19:                                               ; preds = %17
  %20 = load ptr, ptr %5, align 8, !tbaa !4
  %21 = getelementptr inbounds nuw %struct.multi_pack_index, ptr %20, i32 0, i32 26
  %22 = load ptr, ptr %21, align 8, !tbaa !4
  store ptr %22, ptr %5, align 8, !tbaa !4
  br label %8, !llvm.loop !83

23:                                               ; preds = %17
  %24 = load ptr, ptr %5, align 8, !tbaa !4
  %25 = icmp ne ptr %24, null
  br i1 %25, label %28, label %26

26:                                               ; preds = %23
  %27 = load i32, ptr %4, align 4, !tbaa !40
  call void (ptr, i32, ptr, ...) @BUG_fl(ptr noundef @.str.43, i32 noundef 424, ptr noundef @.str.64, i32 noundef %27) #14
  unreachable

28:                                               ; preds = %23
  %29 = load i32, ptr %4, align 4, !tbaa !40
  %30 = load ptr, ptr %5, align 8, !tbaa !4
  %31 = getelementptr inbounds nuw %struct.multi_pack_index, ptr %30, i32 0, i32 11
  %32 = load i32, ptr %31, align 4, !tbaa !40
  %33 = load ptr, ptr %5, align 8, !tbaa !4
  %34 = getelementptr inbounds nuw %struct.multi_pack_index, ptr %33, i32 0, i32 27
  %35 = load i32, ptr %34, align 8, !tbaa !40
  %36 = add i32 %32, %35
  %37 = icmp uge i32 %29, %36
  br i1 %37, label %38, label %40

38:                                               ; preds = %28
  %39 = call ptr @_(ptr noundef @.str.65)
  call void (ptr, ...) @die(ptr noundef %39) #14
  unreachable

40:                                               ; preds = %28
  %41 = load ptr, ptr %5, align 8, !tbaa !4
  %42 = load ptr, ptr %3, align 8, !tbaa !61
  store ptr %41, ptr %42, align 8, !tbaa !4
  %43 = load i32, ptr %4, align 4, !tbaa !40
  %44 = load ptr, ptr %5, align 8, !tbaa !4
  %45 = getelementptr inbounds nuw %struct.multi_pack_index, ptr %44, i32 0, i32 27
  %46 = load i32, ptr %45, align 8, !tbaa !40
  %47 = sub i32 %43, %46
  call void @llvm.lifetime.end.p0(i64 8, ptr %5) #13
  ret i32 %47
}

; Function Attrs: nounwind uwtable
define dso_local i32 @nth_midxed_pack_int_id(ptr noundef %0, i32 noundef %1) #0 {
  %3 = alloca ptr, align 8
  %4 = alloca i32, align 4
  store ptr %0, ptr %3, align 8, !tbaa !4
  store i32 %1, ptr %4, align 4, !tbaa !40
  %5 = load i32, ptr %4, align 4, !tbaa !40
  %6 = call i32 @midx_for_object(ptr noundef %3, i32 noundef %5)
  store i32 %6, ptr %4, align 4, !tbaa !40
  %7 = load ptr, ptr %3, align 8, !tbaa !4
  %8 = getelementptr inbounds nuw %struct.multi_pack_index, ptr %7, i32 0, i32 28
  %9 = load i32, ptr %8, align 4, !tbaa !40
  %10 = load ptr, ptr %3, align 8, !tbaa !4
  %11 = getelementptr inbounds nuw %struct.multi_pack_index, ptr %10, i32 0, i32 21
  %12 = load ptr, ptr %11, align 8, !tbaa !9
  %13 = load i32, ptr %4, align 4, !tbaa !40
  %14 = zext i32 %13 to i64
  %15 = mul i64 %14, 8
  %16 = getelementptr inbounds nuw i8, ptr %12, i64 %15
  %17 = call i32 @get_be32(ptr noundef %16)
  %18 = add i32 %9, %17
  ret i32 %18
}

; Function Attrs: nounwind uwtable
define dso_local i32 @midx_preferred_pack(ptr noundef %0, ptr noundef %1) #0 {
  %3 = alloca i32, align 4
  %4 = alloca ptr, align 8
  %5 = alloca ptr, align 8
  %6 = alloca i32, align 4
  %7 = alloca i32, align 4
  store ptr %0, ptr %4, align 8, !tbaa !4
  store ptr %1, ptr %5, align 8, !tbaa !73
  %8 = load ptr, ptr %4, align 8, !tbaa !4
  %9 = getelementptr inbounds nuw %struct.multi_pack_index, ptr %8, i32 0, i32 12
  %10 = load i32, ptr %9, align 8, !tbaa !40
  %11 = icmp eq i32 %10, -1
  br i1 %11, label %12, label %33

12:                                               ; preds = %2
  call void @llvm.lifetime.start.p0(i64 4, ptr %6) #13
  %13 = load ptr, ptr %4, align 8, !tbaa !4
  %14 = call i32 @load_midx_revindex(ptr noundef %13)
  %15 = icmp slt i32 %14, 0
  br i1 %15, label %16, label %19

16:                                               ; preds = %12
  %17 = load ptr, ptr %4, align 8, !tbaa !4
  %18 = getelementptr inbounds nuw %struct.multi_pack_index, ptr %17, i32 0, i32 12
  store i32 -2, ptr %18, align 8, !tbaa !40
  store i32 -1, ptr %3, align 4
  store i32 1, ptr %7, align 4
  br label %30

19:                                               ; preds = %12
  %20 = load ptr, ptr %4, align 8, !tbaa !4
  %21 = load ptr, ptr %4, align 8, !tbaa !4
  %22 = getelementptr inbounds nuw %struct.multi_pack_index, ptr %21, i32 0, i32 27
  %23 = load i32, ptr %22, align 8, !tbaa !40
  %24 = call i32 @pack_pos_to_midx(ptr noundef %20, i32 noundef %23)
  store i32 %24, ptr %6, align 4, !tbaa !40
  %25 = load ptr, ptr %4, align 8, !tbaa !4
  %26 = load i32, ptr %6, align 4, !tbaa !40
  %27 = call i32 @nth_midxed_pack_int_id(ptr noundef %25, i32 noundef %26)
  %28 = load ptr, ptr %4, align 8, !tbaa !4
  %29 = getelementptr inbounds nuw %struct.multi_pack_index, ptr %28, i32 0, i32 12
  store i32 %27, ptr %29, align 8, !tbaa !40
  store i32 0, ptr %7, align 4
  br label %30

30:                                               ; preds = %19, %16
  call void @llvm.lifetime.end.p0(i64 4, ptr %6) #13
  %31 = load i32, ptr %7, align 4
  switch i32 %31, label %47 [
    i32 0, label %32
    i32 1, label %45
  ]

32:                                               ; preds = %30
  br label %40

33:                                               ; preds = %2
  %34 = load ptr, ptr %4, align 8, !tbaa !4
  %35 = getelementptr inbounds nuw %struct.multi_pack_index, ptr %34, i32 0, i32 12
  %36 = load i32, ptr %35, align 8, !tbaa !40
  %37 = icmp eq i32 %36, -2
  br i1 %37, label %38, label %39

38:                                               ; preds = %33
  store i32 -1, ptr %3, align 4
  br label %45

39:                                               ; preds = %33
  br label %40

40:                                               ; preds = %39, %32
  %41 = load ptr, ptr %4, align 8, !tbaa !4
  %42 = getelementptr inbounds nuw %struct.multi_pack_index, ptr %41, i32 0, i32 12
  %43 = load i32, ptr %42, align 8, !tbaa !40
  %44 = load ptr, ptr %5, align 8, !tbaa !73
  store i32 %43, ptr %44, align 4, !tbaa !40
  store i32 0, ptr %3, align 4
  br label %45

45:                                               ; preds = %40, %38, %30
  %46 = load i32, ptr %3, align 4
  ret i32 %46

47:                                               ; preds = %30
  unreachable
}