; Function Attrs: nounwind uwtable
define dso_local range(i32 -1, 1) i32 @midx_preferred_pack(ptr noundef %0, ptr noundef writeonly captures(none) %1) local_unnamed_addr #1 {
  %3 = getelementptr inbounds nuw i8, ptr %0, i64 64
  %4 = load i32, ptr %3, align 8, !tbaa !41
  switch i32 %4, label %49 [
    i32 -1, label %5
    i32 -2, label %51
  ]

5:                                                ; preds = %2
  %6 = tail call i32 @load_midx_revindex(ptr noundef nonnull %0) #22
  %7 = icmp slt i32 %6, 0
  br i1 %7, label %.thread, label %8

.thread:                                          ; preds = %5
  store i32 -2, ptr %3, align 8, !tbaa !41
  br label %51

8:                                                ; preds = %5
  %9 = getelementptr inbounds nuw i8, ptr %0, i64 176
  %10 = load i32, ptr %9, align 8, !tbaa !41
  %11 = tail call i32 @pack_pos_to_midx(ptr noundef nonnull %0, i32 noundef %10) #22
  br label %.lr.ph.i.i

.lr.ph.i.i:                                       ; preds = %8, %15
  %.019.i.i = phi ptr [ %.0.i.i, %15 ], [ %0, %8 ]
  %12 = getelementptr inbounds nuw i8, ptr %.019.i.i, i64 176
  %13 = load i32, ptr %12, align 8, !tbaa !41
  %14 = icmp ult i32 %11, %13
  br i1 %14, label %15, label %.critedge.i.i

15:                                               ; preds = %.lr.ph.i.i
  %16 = getelementptr inbounds nuw i8, ptr %.019.i.i, i64 168
  %.0.i.i = load ptr, ptr %16, align 8, !tbaa !44
  %.not.i.i = icmp eq ptr %.0.i.i, null
  br i1 %.not.i.i, label %.critedge15.i.i, label %.lr.ph.i.i, !llvm.loop !76

.critedge15.i.i:                                  ; preds = %15
  tail call void (ptr, i32, ptr, ...) @BUG_fl(ptr noundef nonnull @.str.43, i32 noundef 424, ptr noundef nonnull @.str.64, i32 noundef %11) #24
  unreachable

.critedge.i.i:                                    ; preds = %.lr.ph.i.i
  %17 = getelementptr inbounds nuw i8, ptr %.019.i.i, i64 60
  %18 = load i32, ptr %17, align 4, !tbaa !41
  %19 = add i32 %18, %13
  %.not14.i.i = icmp ult i32 %11, %19
  br i1 %.not14.i.i, label %22, label %20

20:                                               ; preds = %.critedge.i.i
  %21 = tail call fastcc ptr @_(ptr noundef nonnull @.str.65)
  tail call void (ptr, ...) @die(ptr noundef %21) #24
  unreachable

22:                                               ; preds = %.critedge.i.i
  %23 = sub i32 %11, %13
  %24 = getelementptr inbounds nuw i8, ptr %.019.i.i, i64 180
  %25 = load i32, ptr %24, align 4, !tbaa !41
  %26 = getelementptr inbounds nuw i8, ptr %.019.i.i, i64 128
  %27 = load ptr, ptr %26, align 8, !tbaa !4
  %28 = zext i32 %23 to i64
  %29 = shl nuw nsw i64 %28, 3
  %30 = getelementptr inbounds nuw i8, ptr %27, i64 %29
  %31 = load i8, ptr %30, align 1, !tbaa !43
  %32 = zext i8 %31 to i32
  %33 = shl nuw i32 %32, 24
  %34 = getelementptr inbounds nuw i8, ptr %30, i64 1
  %35 = load i8, ptr %34, align 1, !tbaa !43
  %36 = zext i8 %35 to i32
  %37 = shl nuw nsw i32 %36, 16
  %38 = or disjoint i32 %37, %33
  %39 = getelementptr inbounds nuw i8, ptr %30, i64 2
  %40 = load i8, ptr %39, align 1, !tbaa !43
  %41 = zext i8 %40 to i32
  %42 = shl nuw nsw i32 %41, 8
  %43 = or disjoint i32 %38, %42
  %44 = getelementptr inbounds nuw i8, ptr %30, i64 3
  %45 = load i8, ptr %44, align 1, !tbaa !43
  %46 = zext i8 %45 to i32
  %47 = or disjoint i32 %43, %46
  %48 = add i32 %47, %25
  store i32 %48, ptr %3, align 8, !tbaa !41
  br label %49

49:                                               ; preds = %22, %2
  %50 = phi i32 [ %48, %22 ], [ %4, %2 ]
  store i32 %50, ptr %1, align 4, !tbaa !41
  br label %51

51:                                               ; preds = %.thread, %2, %49
  %.1 = phi i32 [ 0, %49 ], [ -1, %2 ], [ -1, %.thread ]
  ret i32 %.1
}